target datalayout = "e-m:e-p270:32:32-p271:32:32-p272:64:64-i64:64-i128:128-f80:128-n8:16:32:64-S128"
target triple = "x86_64-pc-linux-gnu"

%struct.strbuf = type { i64, i64, ptr }

@strbuf_slopbuf = external global [0 x i8], align 1
@dump_quoted_path.buf = internal global %struct.strbuf { i64 0, i64 0, ptr @strbuf_slopbuf }, align 8
@.str.38 = private unnamed_addr constant [11 x i8] c"./strbuf.h\00", align 1
@.str.39 = private unnamed_addr constant [30 x i8] c"strbuf_setlen() beyond buffer\00", align 1

; Function Attrs: inlinehint nounwind uwtable
define internal void @strbuf_addstr(ptr noundef %0, ptr noundef %1) #5 {
  %3 = alloca ptr, align 8
  %4 = alloca ptr, align 8
  store ptr %0, ptr %3, align 8, !tbaa !260
  store ptr %1, ptr %4, align 8, !tbaa !29
  %5 = load ptr, ptr %3, align 8, !tbaa !260
  %6 = load ptr, ptr %4, align 8, !tbaa !29
  %7 = load ptr, ptr %4, align 8, !tbaa !29
  %8 = call i64 @strlen(ptr noundef %7) #11
  call void @strbuf_add(ptr noundef %5, ptr noundef %6, i64 noundef %8)
  ret void
}

; Function Attrs: inlinehint nounwind uwtable
define internal void @strbuf_setlen(ptr noundef %0, i64 noundef %1) #5 {
  %3 = alloca ptr, align 8
  %4 = alloca i64, align 8
  store ptr %0, ptr %3, align 8, !tbaa !260
  store i64 %1, ptr %4, align 8, !tbaa !84
  %5 = load i64, ptr %4, align 8, !tbaa !84
  %6 = load ptr, ptr %3, align 8, !tbaa !260
  %7 = getelementptr inbounds nuw %struct.strbuf, ptr %6, i32 0, i32 0
  %8 = load i64, ptr %7, align 8, !tbaa !262
  %9 = icmp ne i64 %8, 0
  br i1 %9, label %10, label %15

10:                                               ; preds = %2
  %11 = load ptr, ptr %3, align 8, !tbaa !260
  %12 = getelementptr inbounds nuw %struct.strbuf, ptr %11, i32 0, i32 0
  %13 = load i64, ptr %12, align 8, !tbaa !262
  %14 = sub i64 %13, 1
  br label %16

15:                                               ; preds = %2
  br label %16

16:                                               ; preds = %15, %10
  %17 = phi i64 [ %14, %10 ], [ 0, %15 ]
  %18 = icmp ugt i64 %5, %17
  br i1 %18, label %19, label %20

19:                                               ; preds = %16
  call void (ptr, i32, ptr, ...) @BUG_fl(ptr noundef @.str.38, i32 noundef 167, ptr noundef @.str.39) #10
  unreachable

20:                                               ; preds = %16
  %21 = load i64, ptr %4, align 8, !tbaa !84
  %22 = load ptr, ptr %3, align 8, !tbaa !260
  %23 = getelementptr inbounds nuw %struct.strbuf, ptr %22, i32 0, i32 1
  store i64 %21, ptr %23, align 8, !tbaa !109
  %24 = load ptr, ptr %3, align 8, !tbaa !260
  %25 = getelementptr inbounds nuw %struct.strbuf, ptr %24, i32 0, i32 2
  %26 = load ptr, ptr %25, align 8, !tbaa !259
  %27 = icmp ne ptr %26, @strbuf_slopbuf
  br i1 %27, label %28, label %34

28:                                               ; preds = %20
  %29 = load ptr, ptr %3, align 8, !tbaa !260
  %30 = getelementptr inbounds nuw %struct.strbuf, ptr %29, i32 0, i32 2
  %31 = load ptr, ptr %30, align 8, !tbaa !259
  %32 = load i64, ptr %4, align 8, !tbaa !84
  %33 = getelementptr inbounds nuw i8, ptr %31, i64 %32
  store i8 0, ptr %33, align 1, !tbaa !122
  br label %35

34:                                               ; preds = %20
  br label %35

35:                                               ; preds = %34, %28
  ret void
}

; Function Attrs: nounwind uwtable
define internal void @dump_quoted_path(ptr noundef %0, ptr noundef %1, ptr noundef %2, ptr noundef %3, ptr noundef %4, ptr noundef %5) #0 {
  %7 = alloca ptr, align 8
  %8 = alloca ptr, align 8
  %9 = alloca ptr, align 8
  %10 = alloca ptr, align 8
  %11 = alloca ptr, align 8
  %12 = alloca ptr, align 8
  store ptr %0, ptr %7, align 8, !tbaa !29
  store ptr %1, ptr %8, align 8, !tbaa !29
  store ptr %2, ptr %9, align 8, !tbaa !29
  store ptr %3, ptr %10, align 8, !tbaa !29
  store ptr %4, ptr %11, align 8, !tbaa !29
  store ptr %5, ptr %12, align 8, !tbaa !29
  call void @strbuf_setlen(ptr noundef @dump_quoted_path.buf, i64 noundef 0)
  %13 = load ptr, ptr %10, align 8, !tbaa !29
  call void @strbuf_addstr(ptr noundef @dump_quoted_path.buf, ptr noundef %13)
  %14 = load ptr, ptr %11, align 8, !tbaa !29
  call void @strbuf_addstr(ptr noundef @dump_quoted_path.buf, ptr noundef %14)
  %15 = load ptr, ptr %7, align 8, !tbaa !29
  call void @strbuf_addstr(ptr noundef @dump_quoted_path.buf, ptr noundef %15)
  %16 = load ptr, ptr %8, align 8, !tbaa !29
  %17 = load ptr, ptr %9, align 8, !tbaa !29
  call void @quote_two_c_style(ptr noundef @dump_quoted_path.buf, ptr noundef %16, ptr noundef %17, i32 noundef 0)
  %18 = load ptr, ptr %12, align 8, !tbaa !29
  call void @strbuf_addstr(ptr noundef @dump_quoted_path.buf, ptr noundef %18)
  %19 = load ptr, ptr getelementptr inbounds nuw (%struct.strbuf, ptr @dump_quoted_path.buf, i32 0, i32 2), align 8, !tbaa !259
  %20 = call i32 @puts(ptr noundef %19)
  ret void
}