; Function Attrs: nounwind uwtable
define internal fastcc void @dump_quoted_path(ptr noundef %0, ptr noundef %1, ptr noundef %2, ptr noundef %3, ptr noundef %4, ptr noundef %5) unnamed_addr #0 {
  store i64 0, ptr getelementptr inbounds nuw (i8, ptr @dump_quoted_path.buf, i64 8), align 8, !tbaa !101
  %7 = load ptr, ptr getelementptr inbounds nuw (i8, ptr @dump_quoted_path.buf, i64 16), align 8, !tbaa !270
  %.not9.i = icmp eq ptr %7, @strbuf_slopbuf
  br i1 %.not9.i, label %strbuf_setlen.exit, label %8

8:                                                ; preds = %6
  store i8 0, ptr %7, align 1, !tbaa !112
  br label %strbuf_setlen.exit

strbuf_setlen.exit:                               ; preds = %6, %8
  %9 = tail call i64 @strlen(ptr noundef nonnull dereferenceable(1) %3) #17
  tail call void @strbuf_add(ptr noundef nonnull @dump_quoted_path.buf, ptr noundef nonnull %3, i64 noundef %9) #15
  %10 = tail call i64 @strlen(ptr noundef nonnull dereferenceable(1) %4) #17
  tail call void @strbuf_add(ptr noundef nonnull @dump_quoted_path.buf, ptr noundef nonnull %4, i64 noundef %10) #15
  %11 = tail call i64 @strlen(ptr noundef nonnull dereferenceable(1) %0) #17
  tail call void @strbuf_add(ptr noundef nonnull @dump_quoted_path.buf, ptr noundef nonnull %0, i64 noundef %11) #15
  tail call void @quote_two_c_style(ptr noundef nonnull @dump_quoted_path.buf, ptr noundef %1, ptr noundef %2, i32 noundef 0) #15
  %12 = tail call i64 @strlen(ptr noundef nonnull dereferenceable(1) %5) #17
  tail call void @strbuf_add(ptr noundef nonnull @dump_quoted_path.buf, ptr noundef nonnull %5, i64 noundef %12) #15
  %13 = load ptr, ptr getelementptr inbounds nuw (i8, ptr @dump_quoted_path.buf, i64 16), align 8, !tbaa !270
  %14 = tail call i32 @puts(ptr noundef nonnull dereferenceable(1) %13)
  ret void
}